; Function Attrs: nounwind uwtable
define internal void @HIDAPI_DriverXbox360_SetDevicePlayerIndex(ptr noundef readonly captures(none) %0, i32 %1, i32 noundef %2) #0 {
  %4 = alloca [3 x i8], align 2
  %5 = alloca [3 x i8], align 2
  %6 = getelementptr inbounds nuw i8, ptr %0, i64 112
  %7 = load ptr, ptr %6, align 8
  %8 = getelementptr inbounds nuw i8, ptr %7, i64 8
  %9 = load ptr, ptr %8, align 8
  %.not = icmp eq ptr %9, null
  br i1 %.not, label %UpdateSlotLED.exit, label %10

10:                                               ; preds = %3
  %11 = getelementptr inbounds nuw i8, ptr %7, i64 16
  store i32 %2, ptr %11, align 8
  %12 = getelementptr inbounds nuw i8, ptr %7, i64 20
  %13 = load i8, ptr %12, align 4, !range !3, !noundef !4
  %14 = trunc nuw i8 %13 to i1
  %15 = icmp sgt i32 %2, -1
  %or.cond = and i1 %15, %14
  %16 = load ptr, ptr %7, align 8
  %17 = getelementptr inbounds nuw i8, ptr %16, i64 128
  %18 = load ptr, ptr %17, align 8
  br i1 %or.cond, label %19, label %24

19:                                               ; preds = %10
  %20 = trunc i32 %2 to i8
  %21 = and i8 %20, 3
  %narrow.i.i = add nuw nsw i8 %21, 6
  call void @llvm.lifetime.start.p0(i64 3, ptr nonnull %5) #9
  store i16 769, ptr %5, align 2
  %22 = getelementptr inbounds nuw i8, ptr %5, i64 2
  store i8 %narrow.i.i, ptr %22, align 2
  %23 = call i32 @SDL_hid_write_REAL(ptr noundef %18, ptr noundef nonnull %5, i64 noundef 3) #9
  call void @llvm.lifetime.end.p0(i64 3, ptr nonnull %5) #9
  br label %UpdateSlotLED.exit

24:                                               ; preds = %10
  call void @llvm.lifetime.start.p0(i64 3, ptr nonnull %4) #9
  store i16 769, ptr %4, align 2
  %25 = getelementptr inbounds nuw i8, ptr %4, i64 2
  store i8 0, ptr %25, align 2
  %26 = call i32 @SDL_hid_write_REAL(ptr noundef %18, ptr noundef nonnull %4, i64 noundef 3) #9
  call void @llvm.lifetime.end.p0(i64 3, ptr nonnull %4) #9
  br label %UpdateSlotLED.exit

UpdateSlotLED.exit:                               ; preds = %24, %19, %3
  ret void
}